; Function Attrs: mustprogress uwtable
define void @_ZNK7rocksdb19TtlCompactionFilter15ValidateOptionsERKNS_9DBOptionsERKNS_19ColumnFamilyOptionsE(ptr noalias sret(%"class.rocksdb::Status") align 8 %agg.result, ptr noundef nonnull align 8 dereferenceable(64) %this, ptr noundef nonnull align 8 dereferenceable(688) %db_opts, ptr noundef nonnull align 8 dereferenceable(820) %cf_opts) unnamed_addr #2 align 2 {
entry:
  %ref.tmp = alloca %"class.rocksdb::Slice", align 8
  %ref.tmp2 = alloca %"class.rocksdb::Slice", align 8
  %clock_ = getelementptr inbounds i8, ptr %this, i64 56
  %0 = load ptr, ptr %clock_, align 8
  %cmp = icmp eq ptr %0, null
  br i1 %cmp, label %if.then, label %if.else

if.then:                                          ; preds = %entry
  store ptr @.str.19, ptr %ref.tmp, align 8
  %size_.i = getelementptr inbounds i8, ptr %ref.tmp, i64 8
  store i64 43, ptr %size_.i, align 8
  store ptr @.str.27, ptr %ref.tmp2, align 8
  %size_.i1 = getelementptr inbounds i8, ptr %ref.tmp2, i64 8
  store i64 0, ptr %size_.i1, align 8
  call void @_ZN7rocksdb6StatusC2ENS0_4CodeENS0_7SubCodeERKNS_5SliceES5_NS0_8SeverityE(ptr noundef nonnull align 8 dereferenceable(16) %agg.result, i8 noundef zeroext 4, i8 noundef zeroext 0, ptr noundef nonnull align 8 dereferenceable(16) %ref.tmp, ptr noundef nonnull align 8 dereferenceable(16) %ref.tmp2, i8 noundef zeroext 0)
  br label %return

if.else:                                          ; preds = %entry
  tail call void @_ZNK7rocksdb12Configurable15ValidateOptionsERKNS_9DBOptionsERKNS_19ColumnFamilyOptionsE(ptr sret(%"class.rocksdb::Status") align 8 %agg.result, ptr noundef nonnull align 8 dereferenceable(32) %this, ptr noundef nonnull align 8 dereferenceable(688) %db_opts, ptr noundef nonnull align 8 dereferenceable(820) %cf_opts)
  br label %return

return:                                           ; preds = %if.else, %if.then
  ret void
}